target datalayout = "e-m:e-p270:32:32-p271:32:32-p272:64:64-i64:64-i128:128-f80:128-n8:16:32:64-S128"
target triple = "x86_64-unknown-linux-gnu"

@.str.18 = private unnamed_addr constant [5 x i8] c"PING\00", align 1
@.str.19 = private unnamed_addr constant [5 x i8] c"PONG\00", align 1
@.str.20 = private unnamed_addr constant [10 x i8] c"SUBSCRIBE\00", align 1
@.str.21 = private unnamed_addr constant [7 x i8] c"CANCEL\00", align 1

; Function Attrs: mustprogress uwtable
define noundef i32 @_ZN3zmq13zmtp_engine_t23process_command_messageEPNS_5msg_tE(ptr noundef nonnull align 8 dereferenceable(1976) %this, ptr noundef %msg_) unnamed_addr #0 align 2 {
entry:
  %retval = alloca i32, align 4
  %this.addr = alloca ptr, align 8
  %msg_.addr = alloca ptr, align 8
  %cmd_name_size = alloca i8, align 1
  %ping_name_size = alloca i64, align 8
  %sub_name_size = alloca i64, align 8
  %cancel_name_size = alloca i64, align 8
  %cmd_name = alloca ptr, align 8
  store ptr %this, ptr %this.addr, align 8
  store ptr %msg_, ptr %msg_.addr, align 8
  %this1 = load ptr, ptr %this.addr, align 8
  %0 = load ptr, ptr %msg_.addr, align 8
  %call = call noundef ptr @_ZN3zmq5msg_t4dataEv(ptr noundef nonnull align 8 dereferenceable(64) %0)
  %1 = load i8, ptr %call, align 1
  store i8 %1, ptr %cmd_name_size, align 1
  store i64 4, ptr %ping_name_size, align 8
  store i64 9, ptr %sub_name_size, align 8
  store i64 6, ptr %cancel_name_size, align 8
  %2 = load ptr, ptr %msg_.addr, align 8
  %call2 = call noundef i64 @_ZNK3zmq5msg_t4sizeEv(ptr noundef nonnull align 8 dereferenceable(64) %2)
  %3 = load i8, ptr %cmd_name_size, align 1
  %conv = zext i8 %3 to i64
  %add = add i64 %conv, 1
  %cmp = icmp ult i64 %call2, %add
  br i1 %cmp, label %if.then, label %if.end

if.then:                                          ; preds = %entry
  store i32 -1, ptr %retval, align 4
  br label %return

if.end:                                           ; preds = %entry
  %4 = load ptr, ptr %msg_.addr, align 8
  %call4 = call noundef ptr @_ZN3zmq5msg_t4dataEv(ptr noundef nonnull align 8 dereferenceable(64) %4)
  %add.ptr = getelementptr inbounds i8, ptr %call4, i64 1
  store ptr %add.ptr, ptr %cmd_name, align 8
  %5 = load i8, ptr %cmd_name_size, align 1
  %conv5 = zext i8 %5 to i64
  %cmp6 = icmp eq i64 %conv5, 4
  br i1 %cmp6, label %land.lhs.true, label %if.end11

land.lhs.true:                                    ; preds = %if.end
  %6 = load ptr, ptr %cmd_name, align 8
  %7 = load i8, ptr %cmd_name_size, align 1
  %conv7 = zext i8 %7 to i64
  %call8 = call i32 @memcmp(ptr noundef %6, ptr noundef @.str.18, i64 noundef %conv7) #18
  %cmp9 = icmp eq i32 %call8, 0
  br i1 %cmp9, label %if.then10, label %if.end11

if.then10:                                        ; preds = %land.lhs.true
  %8 = load ptr, ptr %msg_.addr, align 8
  call void @_ZN3zmq5msg_t9set_flagsEh(ptr noundef nonnull align 8 dereferenceable(64) %8, i8 noundef zeroext 4)
  br label %if.end11

if.end11:                                         ; preds = %if.then10, %land.lhs.true, %if.end
  %9 = load i8, ptr %cmd_name_size, align 1
  %conv12 = zext i8 %9 to i64
  %cmp13 = icmp eq i64 %conv12, 4
  br i1 %cmp13, label %land.lhs.true14, label %if.end19

land.lhs.true14:                                  ; preds = %if.end11
  %10 = load ptr, ptr %cmd_name, align 8
  %11 = load i8, ptr %cmd_name_size, align 1
  %conv15 = zext i8 %11 to i64
  %call16 = call i32 @memcmp(ptr noundef %10, ptr noundef @.str.19, i64 noundef %conv15) #18
  %cmp17 = icmp eq i32 %call16, 0
  br i1 %cmp17, label %if.then18, label %if.end19

if.then18:                                        ; preds = %land.lhs.true14
  %12 = load ptr, ptr %msg_.addr, align 8
  call void @_ZN3zmq5msg_t9set_flagsEh(ptr noundef nonnull align 8 dereferenceable(64) %12, i8 noundef zeroext 8)
  br label %if.end19

if.end19:                                         ; preds = %if.then18, %land.lhs.true14, %if.end11
  %13 = load i8, ptr %cmd_name_size, align 1
  %conv20 = zext i8 %13 to i64
  %cmp21 = icmp eq i64 %conv20, 9
  br i1 %cmp21, label %land.lhs.true22, label %if.end27

land.lhs.true22:                                  ; preds = %if.end19
  %14 = load ptr, ptr %cmd_name, align 8
  %15 = load i8, ptr %cmd_name_size, align 1
  %conv23 = zext i8 %15 to i64
  %call24 = call i32 @memcmp(ptr noundef %14, ptr noundef @.str.20, i64 noundef %conv23) #18
  %cmp25 = icmp eq i32 %call24, 0
  br i1 %cmp25, label %if.then26, label %if.end27

if.then26:                                        ; preds = %land.lhs.true22
  %16 = load ptr, ptr %msg_.addr, align 8
  call void @_ZN3zmq5msg_t9set_flagsEh(ptr noundef nonnull align 8 dereferenceable(64) %16, i8 noundef zeroext 12)
  br label %if.end27

if.end27:                                         ; preds = %if.then26, %land.lhs.true22, %if.end19
  %17 = load i8, ptr %cmd_name_size, align 1
  %conv28 = zext i8 %17 to i64
  %cmp29 = icmp eq i64 %conv28, 6
  br i1 %cmp29, label %land.lhs.true30, label %if.end35

land.lhs.true30:                                  ; preds = %if.end27
  %18 = load ptr, ptr %cmd_name, align 8
  %19 = load i8, ptr %cmd_name_size, align 1
  %conv31 = zext i8 %19 to i64
  %call32 = call i32 @memcmp(ptr noundef %18, ptr noundef @.str.21, i64 noundef %conv31) #18
  %cmp33 = icmp eq i32 %call32, 0
  br i1 %cmp33, label %if.then34, label %if.end35

if.then34:                                        ; preds = %land.lhs.true30
  %20 = load ptr, ptr %msg_.addr, align 8
  call void @_ZN3zmq5msg_t9set_flagsEh(ptr noundef nonnull align 8 dereferenceable(64) %20, i8 noundef zeroext 16)
  br label %if.end35

if.end35:                                         ; preds = %if.then34, %land.lhs.true30, %if.end27
  %21 = load ptr, ptr %msg_.addr, align 8
  %call36 = call noundef zeroext i1 @_ZNK3zmq5msg_t7is_pingEv(ptr noundef nonnull align 8 dereferenceable(64) %21)
  br i1 %call36, label %if.then38, label %lor.lhs.false

lor.lhs.false:                                    ; preds = %if.end35
  %22 = load ptr, ptr %msg_.addr, align 8
  %call37 = call noundef zeroext i1 @_ZNK3zmq5msg_t7is_pongEv(ptr noundef nonnull align 8 dereferenceable(64) %22)
  br i1 %call37, label %if.then38, label %if.end40

if.then38:                                        ; preds = %lor.lhs.false, %if.end35
  %23 = load ptr, ptr %msg_.addr, align 8
  %call39 = call noundef i32 @_ZN3zmq13zmtp_engine_t25process_heartbeat_messageEPNS_5msg_tE(ptr noundef nonnull align 8 dereferenceable(1976) %this1, ptr noundef %23)
  store i32 %call39, ptr %retval, align 4
  br label %return

if.end40:                                         ; preds = %lor.lhs.false
  store i32 0, ptr %retval, align 4
  br label %return

return:                                           ; preds = %if.end40, %if.then38, %if.then
  %24 = load i32, ptr %retval, align 4
  ret i32 %24
}