; Function Attrs: mustprogress uwtable
define noundef i32 @_ZN3zmq13zmtp_engine_t23process_command_messageEPNS_5msg_tE(ptr noundef nonnull align 8 dereferenceable(1976) %this, ptr noundef nonnull %msg_) unnamed_addr #0 align 2 {
entry:
  %call = tail call noundef ptr @_ZN3zmq5msg_t4dataEv(ptr noundef nonnull align 8 dereferenceable(64) %msg_)
  %0 = load i8, ptr %call, align 1
  %call2 = tail call noundef i64 @_ZNK3zmq5msg_t4sizeEv(ptr noundef nonnull align 8 dereferenceable(64) %msg_)
  %conv = zext i8 %0 to i64
  %cmp.not = icmp ugt i64 %call2, %conv
  br i1 %cmp.not, label %if.end, label %return

if.end:                                           ; preds = %entry
  %call4 = tail call noundef ptr @_ZN3zmq5msg_t4dataEv(ptr noundef nonnull align 8 dereferenceable(64) %msg_)
  %add.ptr = getelementptr inbounds i8, ptr %call4, i64 1
  switch i8 %0, label %if.end35 [
    i8 4, label %land.lhs.true
    i8 9, label %land.lhs.true22
    i8 6, label %land.lhs.true30
  ]

land.lhs.true:                                    ; preds = %if.end
  %bcmp = tail call i32 @bcmp(ptr noundef nonnull dereferenceable(4) %add.ptr, ptr noundef nonnull dereferenceable(4) @.str.18, i64 4)
  %cmp9 = icmp eq i32 %bcmp, 0
  br i1 %cmp9, label %if.then10, label %land.lhs.true14

if.then10:                                        ; preds = %land.lhs.true
  tail call void @_ZN3zmq5msg_t9set_flagsEh(ptr noundef nonnull align 8 dereferenceable(64) %msg_, i8 noundef zeroext 4)
  br label %land.lhs.true14

land.lhs.true14:                                  ; preds = %land.lhs.true, %if.then10
  %bcmp21 = tail call i32 @bcmp(ptr noundef nonnull dereferenceable(4) %add.ptr, ptr noundef nonnull dereferenceable(4) @.str.19, i64 4)
  %cmp17 = icmp eq i32 %bcmp21, 0
  br i1 %cmp17, label %if.end35.sink.split, label %if.end35

land.lhs.true22:                                  ; preds = %if.end
  %bcmp22 = tail call i32 @bcmp(ptr noundef nonnull dereferenceable(9) %add.ptr, ptr noundef nonnull dereferenceable(9) @.str.20, i64 9)
  %cmp25 = icmp eq i32 %bcmp22, 0
  br i1 %cmp25, label %if.end35.sink.split, label %if.end35

land.lhs.true30:                                  ; preds = %if.end
  %bcmp23 = tail call i32 @bcmp(ptr noundef nonnull dereferenceable(6) %add.ptr, ptr noundef nonnull dereferenceable(6) @.str.21, i64 6)
  %cmp33 = icmp eq i32 %bcmp23, 0
  br i1 %cmp33, label %if.end35.sink.split, label %if.end35

if.end35.sink.split:                              ; preds = %land.lhs.true30, %land.lhs.true22, %land.lhs.true14
  %.sink = phi i8 [ 8, %land.lhs.true14 ], [ 12, %land.lhs.true22 ], [ 16, %land.lhs.true30 ]
  tail call void @_ZN3zmq5msg_t9set_flagsEh(ptr noundef nonnull align 8 dereferenceable(64) %msg_, i8 noundef zeroext %.sink)
  br label %if.end35

if.end35:                                         ; preds = %if.end35.sink.split, %if.end, %land.lhs.true14, %land.lhs.true22, %land.lhs.true30
  %call36 = tail call noundef zeroext i1 @_ZNK3zmq5msg_t7is_pingEv(ptr noundef nonnull align 8 dereferenceable(64) %msg_)
  br i1 %call36, label %if.then38, label %lor.lhs.false

lor.lhs.false:                                    ; preds = %if.end35
  %call37 = tail call noundef zeroext i1 @_ZNK3zmq5msg_t7is_pongEv(ptr noundef nonnull align 8 dereferenceable(64) %msg_)
  br i1 %call37, label %if.then38, label %return

if.then38:                                        ; preds = %lor.lhs.false, %if.end35
  %call39 = tail call noundef i32 @_ZN3zmq13zmtp_engine_t25process_heartbeat_messageEPNS_5msg_tE(ptr noundef nonnull align 8 dereferenceable(1976) %this, ptr noundef nonnull %msg_)
  br label %return

return:                                           ; preds = %lor.lhs.false, %entry, %if.then38
  %retval.0 = phi i32 [ 0, %if.then38 ], [ -1, %entry ], [ 0, %lor.lhs.false ]
  ret i32 %retval.0
}